target datalayout = "e-m:e-p270:32:32-p271:32:32-p272:64:64-i64:64-i128:128-f80:128-n8:16:32:64-S128"
target triple = "x86_64-pc-linux-gnu"

@.str.2 = private unnamed_addr constant [7 x i8] c"*NULL*\00", align 1
@_ZZL14outputHexBytesliPcPiiE9gHexChars = internal constant [17 x i8] c"0123456789abcdef\00", align 16

; Function Attrs: mustprogress nounwind uwtable
define internal void @_ZL10outputCharcPcPiii(i8 noundef signext %0, ptr noundef %1, ptr noundef %2, i32 noundef %3, i32 noundef %4) #4 {
  %6 = alloca i8, align 1
  %7 = alloca ptr, align 8
  %8 = alloca ptr, align 8
  %9 = alloca i32, align 4
  %10 = alloca i32, align 4
  %11 = alloca i32, align 4
  store i8 %0, ptr %6, align 1, !tbaa !15
  store ptr %1, ptr %7, align 8, !tbaa !9
  store ptr %2, ptr %8, align 8, !tbaa !20
  store i32 %3, ptr %9, align 4, !tbaa !3
  store i32 %4, ptr %10, align 4, !tbaa !3
  call void @llvm.lifetime.start.p0(i64 4, ptr %11) #5
  %12 = load ptr, ptr %8, align 8, !tbaa !20
  %13 = load i32, ptr %12, align 4, !tbaa !3
  %14 = icmp eq i32 %13, 0
  br i1 %14, label %47, label %15

15:                                               ; preds = %5
  %16 = load i8, ptr %6, align 1, !tbaa !15
  %17 = sext i8 %16 to i32
  %18 = icmp ne i32 %17, 10
  br i1 %18, label %19, label %38

19:                                               ; preds = %15
  %20 = load i8, ptr %6, align 1, !tbaa !15
  %21 = sext i8 %20 to i32
  %22 = icmp ne i32 %21, 0
  br i1 %22, label %23, label %38

23:                                               ; preds = %19
  %24 = load ptr, ptr %8, align 8, !tbaa !20
  %25 = load i32, ptr %24, align 4, !tbaa !3
  %26 = load i32, ptr %9, align 4, !tbaa !3
  %27 = icmp slt i32 %25, %26
  br i1 %27, label %28, label %38

28:                                               ; preds = %23
  %29 = load ptr, ptr %7, align 8, !tbaa !9
  %30 = load ptr, ptr %8, align 8, !tbaa !20
  %31 = load i32, ptr %30, align 4, !tbaa !3
  %32 = sub nsw i32 %31, 1
  %33 = sext i32 %32 to i64
  %34 = getelementptr inbounds i8, ptr %29, i64 %33
  %35 = load i8, ptr %34, align 1, !tbaa !15
  %36 = sext i8 %35 to i32
  %37 = icmp eq i32 %36, 10
  br i1 %37, label %47, label %38

38:                                               ; preds = %28, %23, %19, %15
  %39 = load i8, ptr %6, align 1, !tbaa !15
  %40 = sext i8 %39 to i32
  %41 = icmp eq i32 %40, 10
  br i1 %41, label %42, label %71

42:                                               ; preds = %38
  %43 = load ptr, ptr %8, align 8, !tbaa !20
  %44 = load i32, ptr %43, align 4, !tbaa !3
  %45 = load i32, ptr %9, align 4, !tbaa !3
  %46 = icmp sge i32 %44, %45
  br i1 %46, label %47, label %71

47:                                               ; preds = %42, %28, %5
  store i32 0, ptr %11, align 4, !tbaa !3
  br label %48

48:                                               ; preds = %67, %47
  %49 = load i32, ptr %11, align 4, !tbaa !3
  %50 = load i32, ptr %10, align 4, !tbaa !3
  %51 = icmp slt i32 %49, %50
  br i1 %51, label %52, label %70

52:                                               ; preds = %48
  %53 = load ptr, ptr %8, align 8, !tbaa !20
  %54 = load i32, ptr %53, align 4, !tbaa !3
  %55 = load i32, ptr %9, align 4, !tbaa !3
  %56 = icmp slt i32 %54, %55
  br i1 %56, label %57, label %63

57:                                               ; preds = %52
  %58 = load ptr, ptr %7, align 8, !tbaa !9
  %59 = load ptr, ptr %8, align 8, !tbaa !20
  %60 = load i32, ptr %59, align 4, !tbaa !3
  %61 = sext i32 %60 to i64
  %62 = getelementptr inbounds i8, ptr %58, i64 %61
  store i8 32, ptr %62, align 1, !tbaa !15
  br label %63

63:                                               ; preds = %57, %52
  %64 = load ptr, ptr %8, align 8, !tbaa !20
  %65 = load i32, ptr %64, align 4, !tbaa !3
  %66 = add nsw i32 %65, 1
  store i32 %66, ptr %64, align 4, !tbaa !3
  br label %67

67:                                               ; preds = %63
  %68 = load i32, ptr %11, align 4, !tbaa !3
  %69 = add nsw i32 %68, 1
  store i32 %69, ptr %11, align 4, !tbaa !3
  br label %48, !llvm.loop !29

70:                                               ; preds = %48
  br label %71

71:                                               ; preds = %70, %42, %38
  %72 = load ptr, ptr %8, align 8, !tbaa !20
  %73 = load i32, ptr %72, align 4, !tbaa !3
  %74 = load i32, ptr %9, align 4, !tbaa !3
  %75 = icmp slt i32 %73, %74
  br i1 %75, label %76, label %83

76:                                               ; preds = %71
  %77 = load i8, ptr %6, align 1, !tbaa !15
  %78 = load ptr, ptr %7, align 8, !tbaa !9
  %79 = load ptr, ptr %8, align 8, !tbaa !20
  %80 = load i32, ptr %79, align 4, !tbaa !3
  %81 = sext i32 %80 to i64
  %82 = getelementptr inbounds i8, ptr %78, i64 %81
  store i8 %77, ptr %82, align 1, !tbaa !15
  br label %83

83:                                               ; preds = %76, %71
  %84 = load i8, ptr %6, align 1, !tbaa !15
  %85 = sext i8 %84 to i32
  %86 = icmp ne i32 %85, 0
  br i1 %86, label %87, label %91

87:                                               ; preds = %83
  %88 = load ptr, ptr %8, align 8, !tbaa !20
  %89 = load i32, ptr %88, align 4, !tbaa !3
  %90 = add nsw i32 %89, 1
  store i32 %90, ptr %88, align 4, !tbaa !3
  br label %91

91:                                               ; preds = %87, %83
  call void @llvm.lifetime.end.p0(i64 4, ptr %11) #5
  ret void
}

; Function Attrs: mustprogress nounwind uwtable
define internal void @_ZL14outputHexBytesliPcPii(i64 noundef %0, i32 noundef %1, ptr noundef %2, ptr noundef %3, i32 noundef %4) #4 {
  %6 = alloca i64, align 8
  %7 = alloca i32, align 4
  %8 = alloca ptr, align 8
  %9 = alloca ptr, align 8
  %10 = alloca i32, align 4
  %11 = alloca i32, align 4
  %12 = alloca i8, align 1
  store i64 %0, ptr %6, align 8, !tbaa !13
  store i32 %1, ptr %7, align 4, !tbaa !3
  store ptr %2, ptr %8, align 8, !tbaa !9
  store ptr %3, ptr %9, align 8, !tbaa !20
  store i32 %4, ptr %10, align 4, !tbaa !3
  call void @llvm.lifetime.start.p0(i64 4, ptr %11) #5
  %13 = load i32, ptr %7, align 4, !tbaa !3
  %14 = sub nsw i32 %13, 1
  %15 = mul nsw i32 %14, 4
  store i32 %15, ptr %11, align 4, !tbaa !3
  br label %16

16:                                               ; preds = %31, %5
  %17 = load i32, ptr %11, align 4, !tbaa !3
  %18 = icmp sge i32 %17, 0
  br i1 %18, label %19, label %34

19:                                               ; preds = %16
  call void @llvm.lifetime.start.p0(i64 1, ptr %12) #5
  %20 = load i64, ptr %6, align 8, !tbaa !13
  %21 = load i32, ptr %11, align 4, !tbaa !3
  %22 = zext i32 %21 to i64
  %23 = ashr i64 %20, %22
  %24 = and i64 %23, 15
  %25 = getelementptr inbounds [17 x i8], ptr @_ZZL14outputHexBytesliPcPiiE9gHexChars, i64 0, i64 %24
  %26 = load i8, ptr %25, align 1, !tbaa !15
  store i8 %26, ptr %12, align 1, !tbaa !15
  %27 = load i8, ptr %12, align 1, !tbaa !15
  %28 = load ptr, ptr %8, align 8, !tbaa !9
  %29 = load ptr, ptr %9, align 8, !tbaa !20
  %30 = load i32, ptr %10, align 4, !tbaa !3
  call void @_ZL10outputCharcPcPiii(i8 noundef signext %27, ptr noundef %28, ptr noundef %29, i32 noundef %30, i32 noundef 0)
  call void @llvm.lifetime.end.p0(i64 1, ptr %12) #5
  br label %31

31:                                               ; preds = %19
  %32 = load i32, ptr %11, align 4, !tbaa !3
  %33 = sub nsw i32 %32, 4
  store i32 %33, ptr %11, align 4, !tbaa !3
  br label %16, !llvm.loop !36

34:                                               ; preds = %16
  call void @llvm.lifetime.end.p0(i64 4, ptr %11) #5
  ret void
}

; Function Attrs: mustprogress nounwind uwtable
define internal void @_ZL12outputStringPKcPcPiii(ptr noundef %0, ptr noundef %1, ptr noundef %2, i32 noundef %3, i32 noundef %4) #4 {
  %6 = alloca ptr, align 8
  %7 = alloca ptr, align 8
  %8 = alloca ptr, align 8
  %9 = alloca i32, align 4
  %10 = alloca i32, align 4
  %11 = alloca i32, align 4
  %12 = alloca i8, align 1
  store ptr %0, ptr %6, align 8, !tbaa !9
  store ptr %1, ptr %7, align 8, !tbaa !9
  store ptr %2, ptr %8, align 8, !tbaa !20
  store i32 %3, ptr %9, align 4, !tbaa !3
  store i32 %4, ptr %10, align 4, !tbaa !3
  call void @llvm.lifetime.start.p0(i64 4, ptr %11) #5
  store i32 0, ptr %11, align 4, !tbaa !3
  call void @llvm.lifetime.start.p0(i64 1, ptr %12) #5
  %13 = load ptr, ptr %6, align 8, !tbaa !9
  %14 = icmp eq ptr %13, null
  br i1 %14, label %15, label %16

15:                                               ; preds = %5
  store ptr @.str.2, ptr %6, align 8, !tbaa !9
  br label %16

16:                                               ; preds = %15, %5
  br label %17

17:                                               ; preds = %29, %16
  %18 = load ptr, ptr %6, align 8, !tbaa !9
  %19 = load i32, ptr %11, align 4, !tbaa !3
  %20 = add nsw i32 %19, 1
  store i32 %20, ptr %11, align 4, !tbaa !3
  %21 = sext i32 %19 to i64
  %22 = getelementptr inbounds i8, ptr %18, i64 %21
  %23 = load i8, ptr %22, align 1, !tbaa !15
  store i8 %23, ptr %12, align 1, !tbaa !15
  %24 = load i8, ptr %12, align 1, !tbaa !15
  %25 = load ptr, ptr %7, align 8, !tbaa !9
  %26 = load ptr, ptr %8, align 8, !tbaa !20
  %27 = load i32, ptr %9, align 4, !tbaa !3
  %28 = load i32, ptr %10, align 4, !tbaa !3
  call void @_ZL10outputCharcPcPiii(i8 noundef signext %24, ptr noundef %25, ptr noundef %26, i32 noundef %27, i32 noundef %28)
  br label %29

29:                                               ; preds = %17
  %30 = load i8, ptr %12, align 1, !tbaa !15
  %31 = sext i8 %30 to i32
  %32 = icmp ne i32 %31, 0
  br i1 %32, label %17, label %33, !llvm.loop !30

33:                                               ; preds = %29
  call void @llvm.lifetime.end.p0(i64 1, ptr %12) #5
  call void @llvm.lifetime.end.p0(i64 4, ptr %11) #5
  ret void
}

; Function Attrs: mustprogress uwtable
define internal void @_ZL13outputUStringPKDsiPcPiii(ptr noundef %0, i32 noundef %1, ptr noundef %2, ptr noundef %3, i32 noundef %4, i32 noundef %5) #0 {
  %7 = alloca ptr, align 8
  %8 = alloca i32, align 4
  %9 = alloca ptr, align 8
  %10 = alloca ptr, align 8
  %11 = alloca i32, align 4
  %12 = alloca i32, align 4
  %13 = alloca i32, align 4
  %14 = alloca i16, align 2
  %15 = alloca i32, align 4
  store ptr %0, ptr %7, align 8, !tbaa !31
  store i32 %1, ptr %8, align 4, !tbaa !3
  store ptr %2, ptr %9, align 8, !tbaa !9
  store ptr %3, ptr %10, align 8, !tbaa !20
  store i32 %4, ptr %11, align 4, !tbaa !3
  store i32 %5, ptr %12, align 4, !tbaa !3
  call void @llvm.lifetime.start.p0(i64 4, ptr %13) #5
  store i32 0, ptr %13, align 4, !tbaa !3
  call void @llvm.lifetime.start.p0(i64 2, ptr %14) #5
  %16 = load ptr, ptr %7, align 8, !tbaa !31
  %17 = icmp eq ptr %16, null
  br i1 %17, label %18, label %23

18:                                               ; preds = %6
  %19 = load ptr, ptr %9, align 8, !tbaa !9
  %20 = load ptr, ptr %10, align 8, !tbaa !20
  %21 = load i32, ptr %11, align 4, !tbaa !3
  %22 = load i32, ptr %12, align 4, !tbaa !3
  call void @_ZL12outputStringPKcPcPiii(ptr noundef null, ptr noundef %19, ptr noundef %20, i32 noundef %21, i32 noundef %22)
  store i32 1, ptr %15, align 4
  br label %60

23:                                               ; preds = %6
  store i32 0, ptr %13, align 4, !tbaa !3
  br label %24

24:                                               ; preds = %56, %23
  %25 = load i32, ptr %13, align 4, !tbaa !3
  %26 = load i32, ptr %8, align 4, !tbaa !3
  %27 = icmp slt i32 %25, %26
  br i1 %27, label %31, label %28

28:                                               ; preds = %24
  %29 = load i32, ptr %8, align 4, !tbaa !3
  %30 = icmp eq i32 %29, -1
  br label %31

31:                                               ; preds = %28, %24
  %32 = phi i1 [ true, %24 ], [ %30, %28 ]
  br i1 %32, label %33, label %59

33:                                               ; preds = %31
  %34 = load ptr, ptr %7, align 8, !tbaa !31
  %35 = load i32, ptr %13, align 4, !tbaa !3
  %36 = sext i32 %35 to i64
  %37 = getelementptr inbounds i16, ptr %34, i64 %36
  %38 = load i16, ptr %37, align 2, !tbaa !33
  store i16 %38, ptr %14, align 2, !tbaa !33
  %39 = load i16, ptr %14, align 2, !tbaa !33
  %40 = zext i16 %39 to i64
  %41 = load ptr, ptr %9, align 8, !tbaa !9
  %42 = load ptr, ptr %10, align 8, !tbaa !20
  %43 = load i32, ptr %11, align 4, !tbaa !3
  call void @_ZL14outputHexBytesliPcPii(i64 noundef %40, i32 noundef 4, ptr noundef %41, ptr noundef %42, i32 noundef %43)
  %44 = load ptr, ptr %9, align 8, !tbaa !9
  %45 = load ptr, ptr %10, align 8, !tbaa !20
  %46 = load i32, ptr %11, align 4, !tbaa !3
  %47 = load i32, ptr %12, align 4, !tbaa !3
  call void @_ZL10outputCharcPcPiii(i8 noundef signext 32, ptr noundef %44, ptr noundef %45, i32 noundef %46, i32 noundef %47)
  %48 = load i32, ptr %8, align 4, !tbaa !3
  %49 = icmp eq i32 %48, -1
  br i1 %49, label %50, label %55

50:                                               ; preds = %33
  %51 = load i16, ptr %14, align 2, !tbaa !33
  %52 = zext i16 %51 to i32
  %53 = icmp eq i32 %52, 0
  br i1 %53, label %54, label %55

54:                                               ; preds = %50
  br label %59

55:                                               ; preds = %50, %33
  br label %56

56:                                               ; preds = %55
  %57 = load i32, ptr %13, align 4, !tbaa !3
  %58 = add nsw i32 %57, 1
  store i32 %58, ptr %13, align 4, !tbaa !3
  br label %24, !llvm.loop !35

59:                                               ; preds = %54, %31
  store i32 0, ptr %15, align 4
  br label %60

60:                                               ; preds = %59, %18
  call void @llvm.lifetime.end.p0(i64 2, ptr %14) #5
  call void @llvm.lifetime.end.p0(i64 4, ptr %13) #5
  %61 = load i32, ptr %15, align 4
  switch i32 %61, label %63 [
    i32 0, label %62
    i32 1, label %62
  ]

62:                                               ; preds = %60, %60
  ret void

63:                                               ; preds = %60
  unreachable
}