; Function Attrs: mustprogress nofree norecurse nosync nounwind memory(argmem: readwrite) uwtable
define internal fastcc void @_ZL13outputUStringPKDsiPcPiii(ptr noundef readonly %0, i32 noundef %1, ptr noundef captures(none) %2, ptr noundef nonnull captures(none) %3, i32 noundef %4, i32 noundef %5) unnamed_addr #5 {
  %7 = icmp eq ptr %0, null
  %invariant.gep.i = getelementptr i8, ptr %2, i64 -1
  br i1 %7, label %11, label %.preheader

.preheader:                                       ; preds = %6
  %8 = icmp eq i32 %1, -1
  %9 = icmp sgt i32 %1, 0
  %10 = or i1 %8, %9
  br i1 %10, label %.lr.ph, label %_ZL12outputStringPKcPcPiii.exit

.lr.ph:                                           ; preds = %.preheader
  %.old.old.i = icmp sgt i32 %5, 0
  %.pre.i.pre = load i32, ptr %3, align 4, !tbaa !11
  br label %57

11:                                               ; preds = %6
  %.pr.i = load i32, ptr %3, align 4, !tbaa !11
  %.old.i.i = icmp sgt i32 %5, 0
  br i1 %.old.i.i, label %.split.split.split.us.i, label %.split.us.i

.split.us.i:                                      ; preds = %11, %_ZL10outputCharcPcPiii.exit.us.i
  %indvars.iv.i = phi i64 [ %indvars.iv.next.i, %_ZL10outputCharcPcPiii.exit.us.i ], [ 0, %11 ]
  %12 = phi i32 [ %21, %_ZL10outputCharcPcPiii.exit.us.i ], [ %.pr.i, %11 ]
  %indvars.iv.next.i = add nuw nsw i64 %indvars.iv.i, 1
  %13 = icmp slt i32 %12, %4
  br i1 %13, label %14, label %19

14:                                               ; preds = %.split.us.i
  %15 = getelementptr inbounds nuw i8, ptr @.str.2, i64 %indvars.iv.i
  %16 = load i8, ptr %15, align 1, !tbaa !7
  %17 = sext i32 %12 to i64
  %18 = getelementptr inbounds i8, ptr %2, i64 %17
  store i8 %16, ptr %18, align 1, !tbaa !7
  br label %19

19:                                               ; preds = %14, %.split.us.i
  %exitcond = icmp eq i64 %indvars.iv.i, 6
  br i1 %exitcond, label %_ZL12outputStringPKcPcPiii.exit, label %_ZL10outputCharcPcPiii.exit.us.i

_ZL10outputCharcPcPiii.exit.us.i:                 ; preds = %19
  %20 = load i32, ptr %3, align 4, !tbaa !11
  %21 = add nsw i32 %20, 1
  store i32 %21, ptr %3, align 4, !tbaa !11
  br label %.split.us.i, !llvm.loop !15

.split.split.split.us.i:                          ; preds = %11, %_ZL10outputCharcPcPiii.exit.us37.i
  %indvars.iv43.i = phi i64 [ %indvars.iv.next44.i, %_ZL10outputCharcPcPiii.exit.us37.i ], [ 0, %11 ]
  %22 = phi i32 [ %52, %_ZL10outputCharcPcPiii.exit.us37.i ], [ %.pr.i, %11 ]
  %indvars.iv.next44.i = add nuw nsw i64 %indvars.iv43.i, 1
  %23 = getelementptr inbounds nuw i8, ptr @.str.2, i64 %indvars.iv43.i
  %24 = load i8, ptr %23, align 1, !tbaa !7
  %25 = icmp eq i32 %22, 0
  br i1 %25, label %.lr.ph.i.us31.i.preheader, label %26

26:                                               ; preds = %.split.split.split.us.i
  switch i8 %24, label %28 [
    i8 10, label %27
    i8 0, label %.loopexit.i.us35.i
  ]

27:                                               ; preds = %26
  %.not.old.i.us26.not.i = icmp slt i32 %22, %4
  br i1 %.not.old.i.us26.not.i, label %.loopexit.i.us35.i, label %.lr.ph.i.us31.i.preheader

28:                                               ; preds = %26
  %29 = icmp slt i32 %22, %4
  br i1 %29, label %30, label %34

30:                                               ; preds = %28
  %31 = sext i32 %22 to i64
  %gep.us27.i = getelementptr i8, ptr %invariant.gep.i, i64 %31
  %32 = load i8, ptr %gep.us27.i, align 1, !tbaa !7
  %33 = icmp eq i8 %32, 10
  br i1 %33, label %.lr.ph.i.us31.i.preheader, label %34

34:                                               ; preds = %30, %28
  %35 = icmp eq i8 %24, 10
  %.not.i.us28.i = icmp sge i32 %22, %4
  %or.cond.not34.i.us29.i = and i1 %.not.i.us28.i, %35
  br i1 %or.cond.not34.i.us29.i, label %.lr.ph.i.us31.i.preheader, label %.loopexit.i.us35.i

.lr.ph.i.us31.i.preheader:                        ; preds = %34, %30, %27, %.split.split.split.us.i
  br label %.lr.ph.i.us31.i

.lr.ph.i.us31.i:                                  ; preds = %.lr.ph.i.us31.i.preheader, %41
  %36 = phi i32 [ %43, %41 ], [ %22, %.lr.ph.i.us31.i.preheader ]
  %.030.i.us32.i = phi i32 [ %44, %41 ], [ 0, %.lr.ph.i.us31.i.preheader ]
  %37 = icmp slt i32 %36, %4
  br i1 %37, label %38, label %41

38:                                               ; preds = %.lr.ph.i.us31.i
  %39 = sext i32 %36 to i64
  %40 = getelementptr inbounds i8, ptr %2, i64 %39
  store i8 32, ptr %40, align 1, !tbaa !7
  %.pre.i.us33.i = load i32, ptr %3, align 4, !tbaa !11
  br label %41

41:                                               ; preds = %38, %.lr.ph.i.us31.i
  %42 = phi i32 [ %.pre.i.us33.i, %38 ], [ %36, %.lr.ph.i.us31.i ]
  %43 = add nsw i32 %42, 1
  store i32 %43, ptr %3, align 4, !tbaa !11
  %44 = add nuw nsw i32 %.030.i.us32.i, 1
  %exitcond.not.i.us34.i = icmp eq i32 %44, %5
  br i1 %exitcond.not.i.us34.i, label %.loopexit.i.us35.i, label %.lr.ph.i.us31.i, !llvm.loop !10

.loopexit.i.us35.i:                               ; preds = %41, %34, %27, %26
  %45 = phi i32 [ %22, %26 ], [ %22, %27 ], [ %22, %34 ], [ %43, %41 ]
  %46 = icmp slt i32 %45, %4
  br i1 %46, label %47, label %50

47:                                               ; preds = %.loopexit.i.us35.i
  %48 = sext i32 %45 to i64
  %49 = getelementptr inbounds i8, ptr %2, i64 %48
  store i8 %24, ptr %49, align 1, !tbaa !7
  br label %50

50:                                               ; preds = %47, %.loopexit.i.us35.i
  %exitcond37 = icmp eq i64 %indvars.iv43.i, 6
  br i1 %exitcond37, label %_ZL12outputStringPKcPcPiii.exit, label %_ZL10outputCharcPcPiii.exit.us37.i

_ZL10outputCharcPcPiii.exit.us37.i:               ; preds = %50
  %51 = load i32, ptr %3, align 4, !tbaa !11
  %52 = add nsw i32 %51, 1
  store i32 %52, ptr %3, align 4, !tbaa !11
  br label %.split.split.split.us.i, !llvm.loop !15

53:                                               ; preds = %_ZL10outputCharcPcPiii.exit
  %indvars.iv.next = add nuw nsw i64 %indvars.iv, 1
  %54 = trunc nuw i64 %indvars.iv.next to i32
  %55 = icmp sgt i32 %1, %54
  %56 = or i1 %8, %55
  br i1 %56, label %57, label %_ZL12outputStringPKcPcPiii.exit, !llvm.loop !23

57:                                               ; preds = %.lr.ph, %53
  %.pre.i = phi i32 [ %.pre.i.pre, %.lr.ph ], [ %96, %53 ]
  %indvars.iv = phi i64 [ 0, %.lr.ph ], [ %indvars.iv.next, %53 ]
  %58 = getelementptr inbounds nuw i16, ptr %0, i64 %indvars.iv
  %59 = load i16, ptr %58, align 2, !tbaa !24
  %60 = zext i16 %59 to i64
  br label %.loopexit.i.i

.loopexit.i.i:                                    ; preds = %_ZL10outputCharcPcPiii.exit.i, %57
  %61 = phi i32 [ %.pre.i, %57 ], [ %71, %_ZL10outputCharcPcPiii.exit.i ]
  %indvars.iv.i23 = phi i64 [ 16, %57 ], [ %indvars.iv.next.i24, %_ZL10outputCharcPcPiii.exit.i ]
  %indvars.iv.next.i24 = add nsw i64 %indvars.iv.i23, -4
  %62 = icmp slt i32 %61, %4
  br i1 %62, label %63, label %_ZL10outputCharcPcPiii.exit.i

63:                                               ; preds = %.loopexit.i.i
  %64 = lshr i64 %60, %indvars.iv.next.i24
  %65 = and i64 %64, 15
  %66 = getelementptr inbounds nuw [17 x i8], ptr @_ZZL14outputHexBytesliPcPiiE9gHexChars, i64 0, i64 %65
  %67 = load i8, ptr %66, align 1, !tbaa !7
  %68 = sext i32 %61 to i64
  %69 = getelementptr inbounds i8, ptr %2, i64 %68
  store i8 %67, ptr %69, align 1, !tbaa !7
  %.pre10.i = load i32, ptr %3, align 4, !tbaa !11
  br label %_ZL10outputCharcPcPiii.exit.i

_ZL10outputCharcPcPiii.exit.i:                    ; preds = %63, %.loopexit.i.i
  %70 = phi i32 [ %61, %.loopexit.i.i ], [ %.pre10.i, %63 ]
  %71 = add nsw i32 %70, 1
  store i32 %71, ptr %3, align 4, !tbaa !11
  %72 = icmp samesign ugt i64 %indvars.iv.i23, 7
  br i1 %72, label %.loopexit.i.i, label %_ZL14outputHexBytesliPcPii.exit, !llvm.loop !16

_ZL14outputHexBytesliPcPii.exit:                  ; preds = %_ZL10outputCharcPcPiii.exit.i
  %73 = icmp eq i32 %71, 0
  br i1 %73, label %80, label %74

74:                                               ; preds = %_ZL14outputHexBytesliPcPii.exit
  %75 = icmp slt i32 %71, %4
  br i1 %75, label %76, label %.loopexit.i

76:                                               ; preds = %74
  %77 = sext i32 %71 to i64
  %gep = getelementptr i8, ptr %invariant.gep.i, i64 %77
  %78 = load i8, ptr %gep, align 1, !tbaa !7
  %79 = icmp eq i8 %78, 10
  %or.cond26 = and i1 %.old.old.i, %79
  br i1 %or.cond26, label %.lr.ph.i.preheader, label %.loopexit.i

80:                                               ; preds = %_ZL14outputHexBytesliPcPii.exit
  br i1 %.old.old.i, label %.lr.ph.i.preheader, label %.loopexit.i

.lr.ph.i.preheader:                               ; preds = %76, %80
  br label %.lr.ph.i

.lr.ph.i:                                         ; preds = %.lr.ph.i.preheader, %86
  %81 = phi i32 [ %88, %86 ], [ %71, %.lr.ph.i.preheader ]
  %.030.i = phi i32 [ %89, %86 ], [ 0, %.lr.ph.i.preheader ]
  %82 = icmp slt i32 %81, %4
  br i1 %82, label %83, label %86

83:                                               ; preds = %.lr.ph.i
  %84 = sext i32 %81 to i64
  %85 = getelementptr inbounds i8, ptr %2, i64 %84
  store i8 32, ptr %85, align 1, !tbaa !7
  %.pre.i25 = load i32, ptr %3, align 4, !tbaa !11
  br label %86

86:                                               ; preds = %83, %.lr.ph.i
  %87 = phi i32 [ %.pre.i25, %83 ], [ %81, %.lr.ph.i ]
  %88 = add nsw i32 %87, 1
  store i32 %88, ptr %3, align 4, !tbaa !11
  %89 = add nuw nsw i32 %.030.i, 1
  %exitcond.not.i = icmp eq i32 %89, %5
  br i1 %exitcond.not.i, label %.loopexit.i, label %.lr.ph.i, !llvm.loop !10

.loopexit.i:                                      ; preds = %86, %74, %76, %80
  %90 = phi i32 [ 0, %80 ], [ %71, %76 ], [ %71, %74 ], [ %88, %86 ]
  %91 = icmp slt i32 %90, %4
  br i1 %91, label %92, label %_ZL10outputCharcPcPiii.exit

92:                                               ; preds = %.loopexit.i
  %93 = sext i32 %90 to i64
  %94 = getelementptr inbounds i8, ptr %2, i64 %93
  store i8 32, ptr %94, align 1, !tbaa !7
  %.pre = load i32, ptr %3, align 4, !tbaa !11
  br label %_ZL10outputCharcPcPiii.exit

_ZL10outputCharcPcPiii.exit:                      ; preds = %.loopexit.i, %92
  %95 = phi i32 [ %90, %.loopexit.i ], [ %.pre, %92 ]
  %96 = add nsw i32 %95, 1
  store i32 %96, ptr %3, align 4, !tbaa !11
  %97 = icmp eq i16 %59, 0
  %or.cond = and i1 %8, %97
  br i1 %or.cond, label %_ZL12outputStringPKcPcPiii.exit, label %53

_ZL12outputStringPKcPcPiii.exit:                  ; preds = %_ZL10outputCharcPcPiii.exit, %53, %19, %50, %.preheader
  ret void
}